target datalayout = "e-m:e-p270:32:32-p271:32:32-p272:64:64-i64:64-i128:128-f80:128-n8:16:32:64-S128"
target triple = "x86_64-pc-linux-gnu"

%"class.llvm::ScaledNumber" = type <{ i64, i16, [6 x i8] }>
%"struct.llvm::BlockFrequencyInfoImplBase::BlockNode" = type { i32 }
%"class.std::vector" = type { %"struct.std::_Vector_base" }
%"struct.std::_Vector_base" = type { %"struct.std::_Vector_base<llvm::BlockFrequencyInfoImplBase::FrequencyData, std::allocator<llvm::BlockFrequencyInfoImplBase::FrequencyData>>::_Vector_impl" }
%"struct.std::_Vector_base<llvm::BlockFrequencyInfoImplBase::FrequencyData, std::allocator<llvm::BlockFrequencyInfoImplBase::FrequencyData>>::_Vector_impl" = type { %"struct.std::_Vector_base<llvm::BlockFrequencyInfoImplBase::FrequencyData, std::allocator<llvm::BlockFrequencyInfoImplBase::FrequencyData>>::_Vector_impl_data" }
%"struct.std::_Vector_base<llvm::BlockFrequencyInfoImplBase::FrequencyData, std::allocator<llvm::BlockFrequencyInfoImplBase::FrequencyData>>::_Vector_impl_data" = type { ptr, ptr, ptr }
%"class.std::vector.36" = type { %"struct.std::_Vector_base.37" }
%"struct.std::_Vector_base.37" = type { %"struct.std::_Vector_base<llvm::BlockFrequencyInfoImplBase::WorkingData, std::allocator<llvm::BlockFrequencyInfoImplBase::WorkingData>>::_Vector_impl" }
%"struct.std::_Vector_base<llvm::BlockFrequencyInfoImplBase::WorkingData, std::allocator<llvm::BlockFrequencyInfoImplBase::WorkingData>>::_Vector_impl" = type { %"struct.std::_Vector_base<llvm::BlockFrequencyInfoImplBase::WorkingData, std::allocator<llvm::BlockFrequencyInfoImplBase::WorkingData>>::_Vector_impl_data" }
%"struct.std::_Vector_base<llvm::BlockFrequencyInfoImplBase::WorkingData, std::allocator<llvm::BlockFrequencyInfoImplBase::WorkingData>>::_Vector_impl_data" = type { ptr, ptr, ptr }
%"class.llvm::BlockFrequencyInfoImplBase" = type { ptr, %"class.std::vector", %"class.llvm::SparseBitVector", %"class.std::vector.36", %"class.std::__cxx11::list.41" }
%"class.llvm::SparseBitVector" = type { %"class.std::__cxx11::list", %"struct.std::_List_iterator" }
%"class.std::__cxx11::list" = type { %"class.std::__cxx11::_List_base" }
%"class.std::__cxx11::_List_base" = type { %"struct.std::__cxx11::_List_base<llvm::SparseBitVectorElement<>, std::allocator<llvm::SparseBitVectorElement<>>>::_List_impl" }
%"struct.std::__cxx11::_List_base<llvm::SparseBitVectorElement<>, std::allocator<llvm::SparseBitVectorElement<>>>::_List_impl" = type { %"struct.std::__detail::_List_node_header" }
%"struct.std::__detail::_List_node_header" = type { %"struct.std::__detail::_List_node_base", i64 }
%"struct.std::__detail::_List_node_base" = type { ptr, ptr }
%"struct.std::_List_iterator" = type { ptr }
%"class.std::__cxx11::list.41" = type { %"class.std::__cxx11::_List_base.42" }
%"class.std::__cxx11::_List_base.42" = type { %"struct.std::__cxx11::_List_base<llvm::BlockFrequencyInfoImplBase::LoopData, std::allocator<llvm::BlockFrequencyInfoImplBase::LoopData>>::_List_impl" }
%"struct.std::__cxx11::_List_base<llvm::BlockFrequencyInfoImplBase::LoopData, std::allocator<llvm::BlockFrequencyInfoImplBase::LoopData>>::_List_impl" = type { %"struct.std::__detail::_List_node_header" }
%"struct.llvm::BlockFrequencyInfoImplBase::FrequencyData" = type { %"class.llvm::ScaledNumber", i64 }
%"class.llvm::BlockFrequency" = type { i64 }
%"class.std::optional" = type { %"struct.std::_Optional_base" }
%"struct.std::_Optional_base" = type { %"struct.std::_Optional_payload" }
%"struct.std::_Optional_payload" = type { %"struct.std::_Optional_payload_base.base", [7 x i8] }
%"struct.std::_Optional_payload_base.base" = type <{ %"union.std::_Optional_payload_base<unsigned long>::_Storage", i8 }>
%"union.std::_Optional_payload_base<unsigned long>::_Storage" = type { i64 }

; Function Attrs: mustprogress nounwind uwtable
define linkonce_odr hidden noundef i32 @_ZNSt14numeric_limitsIjE3maxEv() #1 comdat align 2 {
  ret i32 -1
}

; Function Attrs: mustprogress nounwind uwtable
define linkonce_odr hidden noundef i64 @_ZN4llvm26BlockFrequencyInfoImplBase9BlockNode11getMaxIndexEv() #1 comdat align 2 {
  %1 = call noundef i32 @_ZNSt14numeric_limitsIjE3maxEv() #2
  %2 = sub i32 %1, 1
  %3 = zext i32 %2 to i64
  ret i64 %3
}

; Function Attrs: mustprogress nounwind uwtable
define linkonce_odr hidden noundef nonnull align 8 dereferenceable(24) ptr @_ZNKSt6vectorIN4llvm26BlockFrequencyInfoImplBase13FrequencyDataESaIS2_EEixEm(ptr noundef nonnull align 8 dereferenceable(24) %0, i64 noundef %1) #1 comdat align 2 {
  %3 = alloca ptr, align 8
  %4 = alloca i64, align 8
  store ptr %0, ptr %3, align 8
  store i64 %1, ptr %4, align 8
  %5 = load ptr, ptr %3, align 8
  %6 = getelementptr inbounds nuw %"struct.std::_Vector_base", ptr %5, i32 0, i32 0
  %7 = getelementptr inbounds nuw %"struct.std::_Vector_base<llvm::BlockFrequencyInfoImplBase::FrequencyData, std::allocator<llvm::BlockFrequencyInfoImplBase::FrequencyData>>::_Vector_impl_data", ptr %6, i32 0, i32 0
  %8 = load ptr, ptr %7, align 8
  %9 = load i64, ptr %4, align 8
  %10 = getelementptr inbounds %"struct.llvm::BlockFrequencyInfoImplBase::FrequencyData", ptr %8, i64 %9
  ret ptr %10
}

; Function Attrs: mustprogress nounwind uwtable
define linkonce_odr hidden void @_ZN4llvm14BlockFrequencyC2Em(ptr noundef nonnull align 8 dereferenceable(8) %0, i64 noundef %1) unnamed_addr #1 comdat align 2 {
  %3 = alloca ptr, align 8
  %4 = alloca i64, align 8
  store ptr %0, ptr %3, align 8
  store i64 %1, ptr %4, align 8
  %5 = load ptr, ptr %3, align 8
  %6 = getelementptr inbounds nuw %"class.llvm::BlockFrequency", ptr %5, i32 0, i32 0
  %7 = load i64, ptr %4, align 8
  store i64 %7, ptr %6, align 8
  ret void
}

; Function Attrs: mustprogress nounwind uwtable
define linkonce_odr hidden noundef zeroext i1 @_ZNK4llvm26BlockFrequencyInfoImplBase9BlockNode7isValidEv(ptr noundef nonnull align 4 dereferenceable(4) %0) #1 comdat align 2 {
  %2 = alloca ptr, align 8
  store ptr %0, ptr %2, align 8
  %3 = load ptr, ptr %2, align 8
  %4 = getelementptr inbounds nuw %"struct.llvm::BlockFrequencyInfoImplBase::BlockNode", ptr %3, i32 0, i32 0
  %5 = load i32, ptr %4, align 4
  %6 = zext i32 %5 to i64
  %7 = call noundef i64 @_ZN4llvm26BlockFrequencyInfoImplBase9BlockNode11getMaxIndexEv()
  %8 = icmp ule i64 %6, %7
  ret i1 %8
}

; Function Attrs: mustprogress nounwind uwtable
define dso_local i64 @_ZNK4llvm26BlockFrequencyInfoImplBase12getBlockFreqERKNS0_9BlockNodeE(ptr noundef nonnull align 8 dereferenceable(112) %0, ptr noundef nonnull align 4 dereferenceable(4) %1) #1 align 2 {
  %3 = alloca %"class.llvm::BlockFrequency", align 8
  %4 = alloca ptr, align 8
  %5 = alloca ptr, align 8
  store ptr %0, ptr %4, align 8
  store ptr %1, ptr %5, align 8
  %6 = load ptr, ptr %4, align 8
  %7 = load ptr, ptr %5, align 8
  %8 = call noundef zeroext i1 @_ZNK4llvm26BlockFrequencyInfoImplBase9BlockNode7isValidEv(ptr noundef nonnull align 4 dereferenceable(4) %7)
  br i1 %8, label %10, label %9

9:                                                ; preds = %2
  call void @_ZN4llvm14BlockFrequencyC2Em(ptr noundef nonnull align 8 dereferenceable(8) %3, i64 noundef 0)
  br label %19

10:                                               ; preds = %2
  %11 = getelementptr inbounds nuw %"class.llvm::BlockFrequencyInfoImplBase", ptr %6, i32 0, i32 1
  %12 = load ptr, ptr %5, align 8
  %13 = getelementptr inbounds nuw %"struct.llvm::BlockFrequencyInfoImplBase::BlockNode", ptr %12, i32 0, i32 0
  %14 = load i32, ptr %13, align 4
  %15 = zext i32 %14 to i64
  %16 = call noundef nonnull align 8 dereferenceable(24) ptr @_ZNKSt6vectorIN4llvm26BlockFrequencyInfoImplBase13FrequencyDataESaIS2_EEixEm(ptr noundef nonnull align 8 dereferenceable(24) %11, i64 noundef %15) #2
  %17 = getelementptr inbounds nuw %"struct.llvm::BlockFrequencyInfoImplBase::FrequencyData", ptr %16, i32 0, i32 1
  %18 = load i64, ptr %17, align 8
  call void @_ZN4llvm14BlockFrequencyC2Em(ptr noundef nonnull align 8 dereferenceable(8) %3, i64 noundef %18)
  br label %19

19:                                               ; preds = %10, %9
  %20 = getelementptr inbounds nuw %"class.llvm::BlockFrequency", ptr %3, i32 0, i32 0
  %21 = load i64, ptr %20, align 8
  ret i64 %21
}

; Function Attrs: mustprogress nounwind uwtable
define dso_local { i64, i8 } @_ZNK4llvm26BlockFrequencyInfoImplBase20getBlockProfileCountERKNS_8FunctionERKNS0_9BlockNodeEb(ptr noundef nonnull align 8 dereferenceable(112) %0, ptr noundef nonnull align 8 dereferenceable(136) %1, ptr noundef nonnull align 4 dereferenceable(4) %2, i1 noundef zeroext %3) #1 align 2 {
  %5 = alloca %"class.std::optional", align 8
  %6 = alloca ptr, align 8
  %7 = alloca ptr, align 8
  %8 = alloca ptr, align 8
  %9 = alloca i8, align 1
  %10 = alloca %"class.llvm::BlockFrequency", align 8
  store ptr %0, ptr %6, align 8
  store ptr %1, ptr %7, align 8
  store ptr %2, ptr %8, align 8
  %11 = zext i1 %3 to i8
  store i8 %11, ptr %9, align 1
  %12 = load ptr, ptr %6, align 8
  %13 = load ptr, ptr %7, align 8
  %14 = load ptr, ptr %8, align 8
  %15 = call i64 @_ZNK4llvm26BlockFrequencyInfoImplBase12getBlockFreqERKNS0_9BlockNodeE(ptr noundef nonnull align 8 dereferenceable(112) %12, ptr noundef nonnull align 4 dereferenceable(4) %14)
  %16 = getelementptr inbounds nuw %"class.llvm::BlockFrequency", ptr %10, i32 0, i32 0
  store i64 %15, ptr %16, align 8
  %17 = load i8, ptr %9, align 1
  %18 = trunc i8 %17 to i1
  %19 = getelementptr inbounds nuw %"class.llvm::BlockFrequency", ptr %10, i32 0, i32 0
  %20 = load i64, ptr %19, align 8
  %21 = call { i64, i8 } @_ZNK4llvm26BlockFrequencyInfoImplBase23getProfileCountFromFreqERKNS_8FunctionENS_14BlockFrequencyEb(ptr noundef nonnull align 8 dereferenceable(112) %12, ptr noundef nonnull align 8 dereferenceable(136) %13, i64 %20, i1 noundef zeroext %18)
  %22 = getelementptr inbounds nuw %"class.std::optional", ptr %5, i32 0, i32 0
  %23 = getelementptr inbounds nuw %"struct.std::_Optional_base", ptr %22, i32 0, i32 0
  %24 = getelementptr inbounds nuw { i64, i8 }, ptr %23, i32 0, i32 0
  %25 = extractvalue { i64, i8 } %21, 0
  store i64 %25, ptr %24, align 8
  %26 = getelementptr inbounds nuw { i64, i8 }, ptr %23, i32 0, i32 1
  %27 = extractvalue { i64, i8 } %21, 1
  store i8 %27, ptr %26, align 8
  %28 = getelementptr inbounds nuw %"class.std::optional", ptr %5, i32 0, i32 0
  %29 = getelementptr inbounds nuw %"struct.std::_Optional_base", ptr %28, i32 0, i32 0
  %30 = load { i64, i8 }, ptr %29, align 8
  ret { i64, i8 } %30
}