; Function Attrs: mustprogress nounwind uwtable
define dso_local { i64, i8 } @_ZNK4llvm26BlockFrequencyInfoImplBase20getBlockProfileCountERKNS_8FunctionERKNS0_9BlockNodeEb(ptr noundef nonnull readonly align 8 captures(none) dereferenceable(112) %0, ptr noundef nonnull align 8 dereferenceable(136) %1, ptr noundef nonnull readonly align 4 captures(none) dereferenceable(4) %2, i1 noundef zeroext %3) local_unnamed_addr #0 align 2 {
  %5 = load i32, ptr %2, align 4
  %.not.i = icmp eq i32 %5, -1
  br i1 %.not.i, label %_ZNK4llvm26BlockFrequencyInfoImplBase12getBlockFreqERKNS0_9BlockNodeE.exit, label %6

6:                                                ; preds = %4
  %7 = getelementptr inbounds nuw i8, ptr %0, i64 8
  %8 = zext i32 %5 to i64
  %9 = load ptr, ptr %7, align 8
  %10 = getelementptr inbounds nuw %"struct.llvm::BlockFrequencyInfoImplBase::FrequencyData", ptr %9, i64 %8, i32 1
  %11 = load i64, ptr %10, align 8
  br label %_ZNK4llvm26BlockFrequencyInfoImplBase12getBlockFreqERKNS0_9BlockNodeE.exit

_ZNK4llvm26BlockFrequencyInfoImplBase12getBlockFreqERKNS0_9BlockNodeE.exit: ; preds = %4, %6
  %.sroa.0.0.i = phi i64 [ %11, %6 ], [ 0, %4 ]
  %12 = tail call { i64, i8 } @_ZNK4llvm26BlockFrequencyInfoImplBase23getProfileCountFromFreqERKNS_8FunctionENS_14BlockFrequencyEb(ptr noundef nonnull align 8 dereferenceable(112) %0, ptr noundef nonnull align 8 dereferenceable(136) %1, i64 %.sroa.0.0.i, i1 noundef zeroext %3)
  ret { i64, i8 } %12
}